target datalayout = "e-m:e-p270:32:32-p271:32:32-p272:64:64-i64:64-i128:128-f80:128-n8:16:32:64-S128"
target triple = "x86_64-pc-linux-gnu"

%"class.llvm::StringRef" = type { ptr, i64 }
%"struct.llvm::MCSection::FragList" = type { ptr, ptr }
%"class.llvm::MCSection" = type <{ ptr, ptr, ptr, ptr, %"struct.llvm::Align", [3 x i8], i32, i32, i32, i8, [7 x i8], %"class.llvm::MCDummyFragment", %"class.llvm::SmallVector", %"class.llvm::StringRef", i32, [4 x i8] }>
%"struct.llvm::Align" = type { i8 }
%"class.llvm::MCDummyFragment" = type { %"class.llvm::MCFragment.base", [2 x i8] }
%"class.llvm::MCFragment.base" = type <{ ptr, ptr, i64, i32, i8, i8 }>
%"class.llvm::SmallVector" = type { %"class.llvm::SmallVectorImpl", %"struct.llvm::SmallVectorStorage" }
%"class.llvm::SmallVectorImpl" = type { %"class.llvm::SmallVectorTemplateBase" }
%"class.llvm::SmallVectorTemplateBase" = type { %"class.llvm::SmallVectorTemplateCommon" }
%"class.llvm::SmallVectorTemplateCommon" = type { %"class.llvm::SmallVectorBase" }
%"class.llvm::SmallVectorBase" = type { ptr, i32, i32 }
%"struct.llvm::SmallVectorStorage" = type { [24 x i8] }
%"struct.std::pair" = type { i32, %"struct.llvm::MCSection::FragList" }
%"class.llvm::MCFragment" = type <{ ptr, ptr, i64, i32, i8, i8, [2 x i8] }>

@_ZTVN4llvm9MCSectionE = unnamed_addr constant { [5 x ptr] } { [5 x ptr] [ptr null, ptr null, ptr @__cxa_pure_virtual, ptr @__cxa_pure_virtual, ptr @_ZNK4llvm9MCSection21getVirtualSectionKindEv] }, align 8

; Function Attrs: mustprogress nounwind uwtable
define linkonce_odr hidden noundef ptr @_ZNK4llvm25SmallVectorTemplateCommonISt4pairIjNS_9MCSection8FragListEEvE10getFirstElEv(ptr noundef nonnull align 8 dereferenceable(16) %0) #0 comdat align 2 {
  %2 = alloca ptr, align 8
  store ptr %0, ptr %2, align 8
  %3 = load ptr, ptr %2, align 8
  %4 = getelementptr inbounds i8, ptr %3, i64 16
  ret ptr %4
}

; Function Attrs: mustprogress nounwind uwtable
define linkonce_odr hidden void @_ZN4llvm25SmallVectorTemplateCommonISt4pairIjNS_9MCSection8FragListEEvEC2Em(ptr noundef nonnull align 8 dereferenceable(16) %0, i64 noundef %1) unnamed_addr #0 comdat align 2 {
  %3 = alloca ptr, align 8
  %4 = alloca i64, align 8
  store ptr %0, ptr %3, align 8
  store i64 %1, ptr %4, align 8
  %5 = load ptr, ptr %3, align 8
  %6 = call noundef ptr @_ZNK4llvm25SmallVectorTemplateCommonISt4pairIjNS_9MCSection8FragListEEvE10getFirstElEv(ptr noundef nonnull align 8 dereferenceable(16) %5)
  %7 = load i64, ptr %4, align 8
  call void @_ZN4llvm15SmallVectorBaseIjEC2EPvm(ptr noundef nonnull align 8 dereferenceable(16) %5, ptr noundef %6, i64 noundef %7)
  ret void
}

; Function Attrs: mustprogress nounwind uwtable
define linkonce_odr hidden void @_ZN4llvm23SmallVectorTemplateBaseISt4pairIjNS_9MCSection8FragListEELb1EEC2Em(ptr noundef nonnull align 8 dereferenceable(16) %0, i64 noundef %1) unnamed_addr #0 comdat align 2 {
  %3 = alloca ptr, align 8
  %4 = alloca i64, align 8
  store ptr %0, ptr %3, align 8
  store i64 %1, ptr %4, align 8
  %5 = load ptr, ptr %3, align 8
  %6 = load i64, ptr %4, align 8
  call void @_ZN4llvm25SmallVectorTemplateCommonISt4pairIjNS_9MCSection8FragListEEvEC2Em(ptr noundef nonnull align 8 dereferenceable(16) %5, i64 noundef %6)
  ret void
}

; Function Attrs: mustprogress nounwind uwtable
define linkonce_odr hidden void @_ZN4llvm15SmallVectorImplISt4pairIjNS_9MCSection8FragListEEEC2Ej(ptr noundef nonnull align 8 dereferenceable(16) %0, i32 noundef %1) unnamed_addr #0 comdat align 2 {
  %3 = alloca ptr, align 8
  %4 = alloca i32, align 4
  store ptr %0, ptr %3, align 8
  store i32 %1, ptr %4, align 4
  %5 = load ptr, ptr %3, align 8
  %6 = load i32, ptr %4, align 4
  %7 = zext i32 %6 to i64
  call void @_ZN4llvm23SmallVectorTemplateBaseISt4pairIjNS_9MCSection8FragListEELb1EEC2Em(ptr noundef nonnull align 8 dereferenceable(16) %5, i64 noundef %7)
  ret void
}

; Function Attrs: mustprogress nounwind uwtable
define linkonce_odr hidden void @_ZN4llvm10MCFragment9setParentEPNS_9MCSectionE(ptr noundef nonnull align 8 dereferenceable(30) %0, ptr noundef %1) #0 comdat align 2 {
  %3 = alloca ptr, align 8
  %4 = alloca ptr, align 8
  store ptr %0, ptr %3, align 8
  store ptr %1, ptr %4, align 8
  %5 = load ptr, ptr %3, align 8
  %6 = load ptr, ptr %4, align 8
  %7 = getelementptr inbounds nuw %"class.llvm::MCFragment", ptr %5, i32 0, i32 1
  store ptr %6, ptr %7, align 8
  ret void
}

; Function Attrs: mustprogress nounwind uwtable
define linkonce_odr hidden void @_ZN4llvm11SmallVectorISt4pairIjNS_9MCSection8FragListEELj1EEC2Ev(ptr noundef nonnull align 8 dereferenceable(40) %0) unnamed_addr #0 comdat align 2 {
  %2 = alloca ptr, align 8
  store ptr %0, ptr %2, align 8
  %3 = load ptr, ptr %2, align 8
  call void @_ZN4llvm15SmallVectorImplISt4pairIjNS_9MCSection8FragListEEEC2Ej(ptr noundef nonnull align 8 dereferenceable(16) %3, i32 noundef 1)
  ret void
}

; Function Attrs: mustprogress nounwind uwtable
define linkonce_odr hidden void @_ZN4llvm15MCDummyFragmentC2Ev(ptr noundef nonnull align 8 dereferenceable(30) %0) unnamed_addr #0 comdat align 2 {
  %2 = alloca ptr, align 8
  store ptr %0, ptr %2, align 8
  %3 = load ptr, ptr %2, align 8
  call void @_ZN4llvm10MCFragmentC2ENS0_12FragmentTypeEb(ptr noundef nonnull align 8 dereferenceable(30) %3, i8 noundef zeroext 14, i1 noundef zeroext false)
  ret void
}

; Function Attrs: mustprogress nounwind uwtable
define linkonce_odr hidden void @_ZN4llvm5AlignC2Ev(ptr noundef nonnull align 1 dereferenceable(1) %0) unnamed_addr #0 comdat align 2 {
  %2 = alloca ptr, align 8
  store ptr %0, ptr %2, align 8
  %3 = load ptr, ptr %2, align 8
  %4 = getelementptr inbounds nuw %"struct.llvm::Align", ptr %3, i32 0, i32 0
  store i8 0, ptr %4, align 1
  ret void
}

; Function Attrs: mustprogress nounwind uwtable
define dso_local void @_ZN4llvm9MCSectionC2ENS0_14SectionVariantENS_9StringRefEbbPNS_8MCSymbolE(ptr noundef nonnull align 8 dereferenceable(148) %0, i32 noundef %1, ptr %2, i64 %3, i1 noundef zeroext %4, i1 noundef zeroext %5, ptr noundef %6) unnamed_addr #0 align 2 {
  %8 = alloca %"class.llvm::StringRef", align 8
  %9 = alloca ptr, align 8
  %10 = alloca i32, align 4
  %11 = alloca i8, align 1
  %12 = alloca i8, align 1
  %13 = alloca ptr, align 8
  %14 = alloca i32, align 4
  %15 = alloca %"struct.llvm::MCSection::FragList", align 8
  %16 = getelementptr inbounds nuw { ptr, i64 }, ptr %8, i32 0, i32 0
  store ptr %2, ptr %16, align 8
  %17 = getelementptr inbounds nuw { ptr, i64 }, ptr %8, i32 0, i32 1
  store i64 %3, ptr %17, align 8
  store ptr %0, ptr %9, align 8
  store i32 %1, ptr %10, align 4
  %18 = zext i1 %4 to i8
  store i8 %18, ptr %11, align 1
  %19 = zext i1 %5 to i8
  store i8 %19, ptr %12, align 1
  store ptr %6, ptr %13, align 8
  %20 = load ptr, ptr %9, align 8
  store ptr getelementptr inbounds inrange(-16, 24) ({ [5 x ptr] }, ptr @_ZTVN4llvm9MCSectionE, i32 0, i32 0, i32 2), ptr %20, align 8
  %21 = getelementptr inbounds nuw %"class.llvm::MCSection", ptr %20, i32 0, i32 2
  %22 = load ptr, ptr %13, align 8
  store ptr %22, ptr %21, align 8
  %23 = getelementptr inbounds nuw %"class.llvm::MCSection", ptr %20, i32 0, i32 3
  store ptr null, ptr %23, align 8
  %24 = getelementptr inbounds nuw %"class.llvm::MCSection", ptr %20, i32 0, i32 4
  call void @_ZN4llvm5AlignC2Ev(ptr noundef nonnull align 1 dereferenceable(1) %24) #5
  %25 = getelementptr inbounds nuw %"class.llvm::MCSection", ptr %20, i32 0, i32 6
  store i32 0, ptr %25, align 4
  %26 = getelementptr inbounds nuw %"class.llvm::MCSection", ptr %20, i32 0, i32 7
  store i32 0, ptr %26, align 8
  %27 = getelementptr inbounds nuw %"class.llvm::MCSection", ptr %20, i32 0, i32 8
  store i32 0, ptr %27, align 4
  %28 = getelementptr inbounds nuw %"class.llvm::MCSection", ptr %20, i32 0, i32 9
  %29 = load i8, ptr %28, align 8
  %30 = and i8 %29, -2
  %31 = or i8 %30, 0
  store i8 %31, ptr %28, align 8
  %32 = getelementptr inbounds nuw %"class.llvm::MCSection", ptr %20, i32 0, i32 9
  %33 = load i8, ptr %32, align 8
  %34 = and i8 %33, -3
  %35 = or i8 %34, 0
  store i8 %35, ptr %32, align 8
  %36 = getelementptr inbounds nuw %"class.llvm::MCSection", ptr %20, i32 0, i32 9
  %37 = load i8, ptr %36, align 8
  %38 = and i8 %37, -5
  %39 = or i8 %38, 0
  store i8 %39, ptr %36, align 8
  %40 = getelementptr inbounds nuw %"class.llvm::MCSection", ptr %20, i32 0, i32 9
  %41 = load i8, ptr %40, align 8
  %42 = and i8 %41, -9
  %43 = or i8 %42, 0
  store i8 %43, ptr %40, align 8
  %44 = getelementptr inbounds nuw %"class.llvm::MCSection", ptr %20, i32 0, i32 9
  %45 = load i8, ptr %11, align 1
  %46 = trunc i8 %45 to i1
  %47 = zext i1 %46 to i8
  %48 = load i8, ptr %44, align 8
  %49 = shl i8 %47, 4
  %50 = and i8 %48, -17
  %51 = or i8 %50, %49
  store i8 %51, ptr %44, align 8
  %52 = getelementptr inbounds nuw %"class.llvm::MCSection", ptr %20, i32 0, i32 9
  %53 = load i8, ptr %12, align 1
  %54 = trunc i8 %53 to i1
  %55 = zext i1 %54 to i8
  %56 = load i8, ptr %52, align 8
  %57 = shl i8 %55, 5
  %58 = and i8 %56, -33
  %59 = or i8 %58, %57
  store i8 %59, ptr %52, align 8
  %60 = getelementptr inbounds nuw %"class.llvm::MCSection", ptr %20, i32 0, i32 11
  call void @_ZN4llvm15MCDummyFragmentC2Ev(ptr noundef nonnull align 8 dereferenceable(30) %60)
  %61 = getelementptr inbounds nuw %"class.llvm::MCSection", ptr %20, i32 0, i32 12
  call void @_ZN4llvm11SmallVectorISt4pairIjNS_9MCSection8FragListEELj1EEC2Ev(ptr noundef nonnull align 8 dereferenceable(40) %61)
  %62 = getelementptr inbounds nuw %"class.llvm::MCSection", ptr %20, i32 0, i32 13
  call void @llvm.memcpy.p0.p0.i64(ptr align 8 %62, ptr align 8 %8, i64 16, i1 false)
  %63 = getelementptr inbounds nuw %"class.llvm::MCSection", ptr %20, i32 0, i32 14
  %64 = load i32, ptr %10, align 4
  store i32 %64, ptr %63, align 8
  %65 = getelementptr inbounds nuw %"class.llvm::MCSection", ptr %20, i32 0, i32 11
  call void @_ZN4llvm10MCFragment9setParentEPNS_9MCSectionE(ptr noundef nonnull align 8 dereferenceable(30) %65, ptr noundef %20)
  %66 = getelementptr inbounds nuw %"class.llvm::MCSection", ptr %20, i32 0, i32 12
  store i32 0, ptr %14, align 4
  %67 = getelementptr inbounds nuw %"struct.llvm::MCSection::FragList", ptr %15, i32 0, i32 0
  store ptr null, ptr %67, align 8
  %68 = getelementptr inbounds nuw %"struct.llvm::MCSection::FragList", ptr %15, i32 0, i32 1
  store ptr null, ptr %68, align 8
  %69 = call noundef nonnull align 8 dereferenceable(24) ptr @_ZN4llvm15SmallVectorImplISt4pairIjNS_9MCSection8FragListEEE12emplace_backIJjS3_EEERS4_DpOT_(ptr noundef nonnull align 8 dereferenceable(16) %66, ptr noundef nonnull align 4 dereferenceable(4) %14, ptr noundef nonnull align 8 dereferenceable(16) %15)
  %70 = getelementptr inbounds nuw %"struct.std::pair", ptr %69, i32 0, i32 1
  %71 = getelementptr inbounds nuw %"class.llvm::MCSection", ptr %20, i32 0, i32 1
  store ptr %70, ptr %71, align 8
  ret void
}