; Function Attrs: mustprogress nounwind uwtable
define dso_local void @_ZN4llvm9MCSectionC2ENS0_14SectionVariantENS_9StringRefEbbPNS_8MCSymbolE(ptr noundef nonnull align 8 dereferenceable(148) initializes((0, 8), (16, 33), (36, 48)) %0, i32 noundef %1, ptr %2, i64 %3, i1 noundef zeroext %4, i1 noundef zeroext %5, ptr noundef %6) unnamed_addr #0 align 2 {
  %8 = alloca i32, align 4
  %9 = alloca %"struct.llvm::MCSection::FragList", align 8
  store ptr getelementptr inbounds nuw inrange(-16, 24) (i8, ptr @_ZTVN4llvm9MCSectionE, i64 16), ptr %0, align 8
  %10 = getelementptr inbounds nuw i8, ptr %0, i64 16
  store ptr %6, ptr %10, align 8
  %11 = getelementptr inbounds nuw i8, ptr %0, i64 24
  store ptr null, ptr %11, align 8
  %12 = getelementptr inbounds nuw i8, ptr %0, i64 32
  store i8 0, ptr %12, align 8
  %13 = getelementptr inbounds nuw i8, ptr %0, i64 36
  store i32 0, ptr %13, align 4
  %14 = getelementptr inbounds nuw i8, ptr %0, i64 40
  store i32 0, ptr %14, align 8
  %15 = getelementptr inbounds nuw i8, ptr %0, i64 44
  store i32 0, ptr %15, align 4
  %16 = getelementptr inbounds nuw i8, ptr %0, i64 48
  %17 = load i8, ptr %16, align 8
  %18 = select i1 %4, i8 16, i8 0
  %19 = and i8 %17, -64
  %20 = select i1 %5, i8 32, i8 0
  %21 = or disjoint i8 %20, %18
  %22 = or disjoint i8 %21, %19
  store i8 %22, ptr %16, align 8
  %23 = getelementptr inbounds nuw i8, ptr %0, i64 56
  tail call void @_ZN4llvm10MCFragmentC2ENS0_12FragmentTypeEb(ptr noundef nonnull align 8 dereferenceable(30) %23, i8 noundef zeroext 14, i1 noundef zeroext false) #8
  %24 = getelementptr inbounds nuw i8, ptr %0, i64 88
  %25 = getelementptr inbounds nuw i8, ptr %0, i64 104
  tail call void @_ZN4llvm15SmallVectorBaseIjEC2EPvm(ptr noundef nonnull align 8 dereferenceable(40) %24, ptr noundef nonnull %25, i64 noundef 1) #8
  %26 = getelementptr inbounds nuw i8, ptr %0, i64 128
  store ptr %2, ptr %26, align 8
  %.sroa.2.0..sroa_idx = getelementptr inbounds nuw i8, ptr %0, i64 136
  store i64 %3, ptr %.sroa.2.0..sroa_idx, align 8
  %27 = getelementptr inbounds nuw i8, ptr %0, i64 144
  store i32 %1, ptr %27, align 8
  %28 = getelementptr inbounds nuw i8, ptr %0, i64 64
  store ptr %0, ptr %28, align 8
  store i32 0, ptr %8, align 4
  call void @llvm.memset.p0.i64(ptr noundef nonnull align 8 dereferenceable(16) %9, i8 0, i64 16, i1 false)
  %29 = call noundef nonnull align 8 dereferenceable(24) ptr @_ZN4llvm15SmallVectorImplISt4pairIjNS_9MCSection8FragListEEE12emplace_backIJjS3_EEERS4_DpOT_(ptr noundef nonnull align 8 dereferenceable(16) %24, ptr noundef nonnull align 4 dereferenceable(4) %8, ptr noundef nonnull align 8 dereferenceable(16) %9)
  %30 = getelementptr inbounds nuw i8, ptr %29, i64 8
  %31 = getelementptr inbounds nuw i8, ptr %0, i64 8
  store ptr %30, ptr %31, align 8
  ret void
}